target datalayout = "e-m:e-p270:32:32-p271:32:32-p272:64:64-i64:64-i128:128-f80:128-n8:16:32:64-S128"
target triple = "x86_64-pc-linux-gnu"

%struct.jv = type { i8, i8, i16, i32, %union.anon }
%union.anon = type { ptr }

@.str.7 = private unnamed_addr constant [35 x i8] c"Path must be specified as an array\00", align 1

; Function Attrs: nounwind uwtable
define internal i32 @jv_is_valid(i64 %0, ptr %1) #0 {
  %3 = alloca %struct.jv, align 8
  %4 = getelementptr inbounds nuw { i64, ptr }, ptr %3, i32 0, i32 0
  store i64 %0, ptr %4, align 8
  %5 = getelementptr inbounds nuw { i64, ptr }, ptr %3, i32 0, i32 1
  store ptr %1, ptr %5, align 8
  %6 = getelementptr inbounds nuw { i64, ptr }, ptr %3, i32 0, i32 0
  %7 = load i64, ptr %6, align 8
  %8 = getelementptr inbounds nuw { i64, ptr }, ptr %3, i32 0, i32 1
  %9 = load ptr, ptr %8, align 8
  %10 = call i32 @jv_get_kind(i64 %7, ptr %9)
  %11 = icmp ne i32 %10, 0
  %12 = zext i1 %11 to i32
  ret i32 %12
}

; Function Attrs: nounwind uwtable
define dso_local { i64, ptr } @jv_getpath(i64 %0, ptr %1, i64 %2, ptr %3) #0 {
  %5 = alloca %struct.jv, align 8
  %6 = alloca %struct.jv, align 8
  %7 = alloca %struct.jv, align 8
  %8 = alloca %struct.jv, align 8
  %9 = alloca %struct.jv, align 8
  %10 = alloca %struct.jv, align 8
  %11 = alloca %struct.jv, align 8
  %12 = alloca %struct.jv, align 8
  %13 = alloca %struct.jv, align 8
  %14 = alloca %struct.jv, align 8
  %15 = getelementptr inbounds nuw { i64, ptr }, ptr %6, i32 0, i32 0
  store i64 %0, ptr %15, align 8
  %16 = getelementptr inbounds nuw { i64, ptr }, ptr %6, i32 0, i32 1
  store ptr %1, ptr %16, align 8
  %17 = getelementptr inbounds nuw { i64, ptr }, ptr %7, i32 0, i32 0
  store i64 %2, ptr %17, align 8
  %18 = getelementptr inbounds nuw { i64, ptr }, ptr %7, i32 0, i32 1
  store ptr %3, ptr %18, align 8
  %19 = getelementptr inbounds nuw { i64, ptr }, ptr %7, i32 0, i32 0
  %20 = load i64, ptr %19, align 8
  %21 = getelementptr inbounds nuw { i64, ptr }, ptr %7, i32 0, i32 1
  %22 = load ptr, ptr %21, align 8
  %23 = call i32 @jv_get_kind(i64 %20, ptr %22)
  %24 = icmp ne i32 %23, 6
  br i1 %24, label %25, label %48

25:                                               ; preds = %4
  %26 = getelementptr inbounds nuw { i64, ptr }, ptr %6, i32 0, i32 0
  %27 = load i64, ptr %26, align 8
  %28 = getelementptr inbounds nuw { i64, ptr }, ptr %6, i32 0, i32 1
  %29 = load ptr, ptr %28, align 8
  call void @jv_free(i64 %27, ptr %29)
  %30 = getelementptr inbounds nuw { i64, ptr }, ptr %7, i32 0, i32 0
  %31 = load i64, ptr %30, align 8
  %32 = getelementptr inbounds nuw { i64, ptr }, ptr %7, i32 0, i32 1
  %33 = load ptr, ptr %32, align 8
  call void @jv_free(i64 %31, ptr %33)
  %34 = call { i64, ptr } @jv_string(ptr noundef @.str.7)
  %35 = getelementptr inbounds nuw { i64, ptr }, ptr %8, i32 0, i32 0
  %36 = extractvalue { i64, ptr } %34, 0
  store i64 %36, ptr %35, align 8
  %37 = getelementptr inbounds nuw { i64, ptr }, ptr %8, i32 0, i32 1
  %38 = extractvalue { i64, ptr } %34, 1
  store ptr %38, ptr %37, align 8
  %39 = getelementptr inbounds nuw { i64, ptr }, ptr %8, i32 0, i32 0
  %40 = load i64, ptr %39, align 8
  %41 = getelementptr inbounds nuw { i64, ptr }, ptr %8, i32 0, i32 1
  %42 = load ptr, ptr %41, align 8
  %43 = call { i64, ptr } @jv_invalid_with_msg(i64 %40, ptr %42)
  %44 = getelementptr inbounds nuw { i64, ptr }, ptr %5, i32 0, i32 0
  %45 = extractvalue { i64, ptr } %43, 0
  store i64 %45, ptr %44, align 8
  %46 = getelementptr inbounds nuw { i64, ptr }, ptr %5, i32 0, i32 1
  %47 = extractvalue { i64, ptr } %43, 1
  store ptr %47, ptr %46, align 8
  br label %149

48:                                               ; preds = %4
  %49 = getelementptr inbounds nuw { i64, ptr }, ptr %6, i32 0, i32 0
  %50 = load i64, ptr %49, align 8
  %51 = getelementptr inbounds nuw { i64, ptr }, ptr %6, i32 0, i32 1
  %52 = load ptr, ptr %51, align 8
  %53 = call i32 @jv_is_valid(i64 %50, ptr %52)
  %54 = icmp ne i32 %53, 0
  br i1 %54, label %60, label %55

55:                                               ; preds = %48
  %56 = getelementptr inbounds nuw { i64, ptr }, ptr %7, i32 0, i32 0
  %57 = load i64, ptr %56, align 8
  %58 = getelementptr inbounds nuw { i64, ptr }, ptr %7, i32 0, i32 1
  %59 = load ptr, ptr %58, align 8
  call void @jv_free(i64 %57, ptr %59)
  call void @llvm.memcpy.p0.p0.i64(ptr align 8 %5, ptr align 8 %6, i64 16, i1 false), !tbaa.struct !4
  br label %149

60:                                               ; preds = %48
  %61 = getelementptr inbounds nuw { i64, ptr }, ptr %7, i32 0, i32 0
  %62 = load i64, ptr %61, align 8
  %63 = getelementptr inbounds nuw { i64, ptr }, ptr %7, i32 0, i32 1
  %64 = load ptr, ptr %63, align 8
  %65 = call { i64, ptr } @jv_copy(i64 %62, ptr %64)
  %66 = getelementptr inbounds nuw { i64, ptr }, ptr %9, i32 0, i32 0
  %67 = extractvalue { i64, ptr } %65, 0
  store i64 %67, ptr %66, align 8
  %68 = getelementptr inbounds nuw { i64, ptr }, ptr %9, i32 0, i32 1
  %69 = extractvalue { i64, ptr } %65, 1
  store ptr %69, ptr %68, align 8
  %70 = getelementptr inbounds nuw { i64, ptr }, ptr %9, i32 0, i32 0
  %71 = load i64, ptr %70, align 8
  %72 = getelementptr inbounds nuw { i64, ptr }, ptr %9, i32 0, i32 1
  %73 = load ptr, ptr %72, align 8
  %74 = call i32 @jv_array_length(i64 %71, ptr %73)
  %75 = icmp eq i32 %74, 0
  br i1 %75, label %76, label %81

76:                                               ; preds = %60
  %77 = getelementptr inbounds nuw { i64, ptr }, ptr %7, i32 0, i32 0
  %78 = load i64, ptr %77, align 8
  %79 = getelementptr inbounds nuw { i64, ptr }, ptr %7, i32 0, i32 1
  %80 = load ptr, ptr %79, align 8
  call void @jv_free(i64 %78, ptr %80)
  call void @llvm.memcpy.p0.p0.i64(ptr align 8 %5, ptr align 8 %6, i64 16, i1 false), !tbaa.struct !4
  br label %149

81:                                               ; preds = %60
  call void @llvm.lifetime.start.p0(i64 16, ptr %10) #6
  %82 = getelementptr inbounds nuw { i64, ptr }, ptr %7, i32 0, i32 0
  %83 = load i64, ptr %82, align 8
  %84 = getelementptr inbounds nuw { i64, ptr }, ptr %7, i32 0, i32 1
  %85 = load ptr, ptr %84, align 8
  %86 = call { i64, ptr } @jv_copy(i64 %83, ptr %85)
  %87 = getelementptr inbounds nuw { i64, ptr }, ptr %11, i32 0, i32 0
  %88 = extractvalue { i64, ptr } %86, 0
  store i64 %88, ptr %87, align 8
  %89 = getelementptr inbounds nuw { i64, ptr }, ptr %11, i32 0, i32 1
  %90 = extractvalue { i64, ptr } %86, 1
  store ptr %90, ptr %89, align 8
  %91 = getelementptr inbounds nuw { i64, ptr }, ptr %11, i32 0, i32 0
  %92 = load i64, ptr %91, align 8
  %93 = getelementptr inbounds nuw { i64, ptr }, ptr %11, i32 0, i32 1
  %94 = load ptr, ptr %93, align 8
  %95 = call { i64, ptr } @jv_array_get(i64 %92, ptr %94, i32 noundef 0)
  %96 = getelementptr inbounds nuw { i64, ptr }, ptr %10, i32 0, i32 0
  %97 = extractvalue { i64, ptr } %95, 0
  store i64 %97, ptr %96, align 8
  %98 = getelementptr inbounds nuw { i64, ptr }, ptr %10, i32 0, i32 1
  %99 = extractvalue { i64, ptr } %95, 1
  store ptr %99, ptr %98, align 8
  call void @llvm.lifetime.start.p0(i64 16, ptr %12) #6
  %100 = getelementptr inbounds nuw { i64, ptr }, ptr %7, i32 0, i32 0
  %101 = load i64, ptr %100, align 8
  %102 = getelementptr inbounds nuw { i64, ptr }, ptr %7, i32 0, i32 1
  %103 = load ptr, ptr %102, align 8
  %104 = call { i64, ptr } @jv_copy(i64 %101, ptr %103)
  %105 = getelementptr inbounds nuw { i64, ptr }, ptr %13, i32 0, i32 0
  %106 = extractvalue { i64, ptr } %104, 0
  store i64 %106, ptr %105, align 8
  %107 = getelementptr inbounds nuw { i64, ptr }, ptr %13, i32 0, i32 1
  %108 = extractvalue { i64, ptr } %104, 1
  store ptr %108, ptr %107, align 8
  %109 = getelementptr inbounds nuw { i64, ptr }, ptr %13, i32 0, i32 0
  %110 = load i64, ptr %109, align 8
  %111 = getelementptr inbounds nuw { i64, ptr }, ptr %13, i32 0, i32 1
  %112 = load ptr, ptr %111, align 8
  %113 = call i32 @jv_array_length(i64 %110, ptr %112)
  %114 = getelementptr inbounds nuw { i64, ptr }, ptr %7, i32 0, i32 0
  %115 = load i64, ptr %114, align 8
  %116 = getelementptr inbounds nuw { i64, ptr }, ptr %7, i32 0, i32 1
  %117 = load ptr, ptr %116, align 8
  %118 = call { i64, ptr } @jv_array_slice(i64 %115, ptr %117, i32 noundef 1, i32 noundef %113)
  %119 = getelementptr inbounds nuw { i64, ptr }, ptr %12, i32 0, i32 0
  %120 = extractvalue { i64, ptr } %118, 0
  store i64 %120, ptr %119, align 8
  %121 = getelementptr inbounds nuw { i64, ptr }, ptr %12, i32 0, i32 1
  %122 = extractvalue { i64, ptr } %118, 1
  store ptr %122, ptr %121, align 8
  %123 = getelementptr inbounds nuw { i64, ptr }, ptr %6, i32 0, i32 0
  %124 = load i64, ptr %123, align 8
  %125 = getelementptr inbounds nuw { i64, ptr }, ptr %6, i32 0, i32 1
  %126 = load ptr, ptr %125, align 8
  %127 = getelementptr inbounds nuw { i64, ptr }, ptr %10, i32 0, i32 0
  %128 = load i64, ptr %127, align 8
  %129 = getelementptr inbounds nuw { i64, ptr }, ptr %10, i32 0, i32 1
  %130 = load ptr, ptr %129, align 8
  %131 = call { i64, ptr } @jv_get(i64 %124, ptr %126, i64 %128, ptr %130)
  %132 = getelementptr inbounds nuw { i64, ptr }, ptr %14, i32 0, i32 0
  %133 = extractvalue { i64, ptr } %131, 0
  store i64 %133, ptr %132, align 8
  %134 = getelementptr inbounds nuw { i64, ptr }, ptr %14, i32 0, i32 1
  %135 = extractvalue { i64, ptr } %131, 1
  store ptr %135, ptr %134, align 8
  %136 = getelementptr inbounds nuw { i64, ptr }, ptr %14, i32 0, i32 0
  %137 = load i64, ptr %136, align 8
  %138 = getelementptr inbounds nuw { i64, ptr }, ptr %14, i32 0, i32 1
  %139 = load ptr, ptr %138, align 8
  %140 = getelementptr inbounds nuw { i64, ptr }, ptr %12, i32 0, i32 0
  %141 = load i64, ptr %140, align 8
  %142 = getelementptr inbounds nuw { i64, ptr }, ptr %12, i32 0, i32 1
  %143 = load ptr, ptr %142, align 8
  %144 = call { i64, ptr } @jv_getpath(i64 %137, ptr %139, i64 %141, ptr %143)
  %145 = getelementptr inbounds nuw { i64, ptr }, ptr %5, i32 0, i32 0
  %146 = extractvalue { i64, ptr } %144, 0
  store i64 %146, ptr %145, align 8
  %147 = getelementptr inbounds nuw { i64, ptr }, ptr %5, i32 0, i32 1
  %148 = extractvalue { i64, ptr } %144, 1
  store ptr %148, ptr %147, align 8
  call void @llvm.lifetime.end.p0(i64 16, ptr %12) #6
  call void @llvm.lifetime.end.p0(i64 16, ptr %10) #6
  br label %149

149:                                              ; preds = %81, %76, %55, %25
  %150 = load { i64, ptr }, ptr %5, align 8
  ret { i64, ptr } %150
}