; Function Attrs: nounwind uwtable
define dso_local { i64, ptr } @jv_getpath(i64 %0, ptr %1, i64 %2, ptr %3) local_unnamed_addr #0 {
  %5 = tail call i32 @jv_get_kind(i64 %2, ptr %3) #6
  %.not49 = icmp eq i32 %5, 6
  br i1 %.not49, label %.lr.ph, label %tailrecurse._crit_edge

tailrecurse._crit_edge:                           ; preds = %tailrecurse, %4
  %.tr.lcssa = phi i64 [ %0, %4 ], [ %37, %tailrecurse ]
  %.tr38.lcssa = phi ptr [ %1, %4 ], [ %38, %tailrecurse ]
  %.tr39.lcssa = phi i64 [ %2, %4 ], [ %34, %tailrecurse ]
  %.tr40.lcssa = phi ptr [ %3, %4 ], [ %35, %tailrecurse ]
  tail call void @jv_free(i64 %.tr.lcssa, ptr %.tr38.lcssa) #6
  tail call void @jv_free(i64 %.tr39.lcssa, ptr %.tr40.lcssa) #6
  %6 = tail call { i64, ptr } @jv_string(ptr noundef nonnull @.str.7) #6
  %7 = extractvalue { i64, ptr } %6, 0
  %8 = extractvalue { i64, ptr } %6, 1
  %9 = tail call { i64, ptr } @jv_invalid_with_msg(i64 %7, ptr %8) #6
  br label %40

.lr.ph:                                           ; preds = %4, %tailrecurse
  %.tr4053 = phi ptr [ %35, %tailrecurse ], [ %3, %4 ]
  %.tr3952 = phi i64 [ %34, %tailrecurse ], [ %2, %4 ]
  %.tr3851 = phi ptr [ %38, %tailrecurse ], [ %1, %4 ]
  %.tr50 = phi i64 [ %37, %tailrecurse ], [ %0, %4 ]
  %10 = tail call i32 @jv_get_kind(i64 %.tr50, ptr %.tr3851) #6
  %.not37 = icmp eq i32 %10, 0
  br i1 %.not37, label %11, label %14

11:                                               ; preds = %.lr.ph
  tail call void @jv_free(i64 %.tr3952, ptr %.tr4053) #6
  %12 = insertvalue { i64, ptr } poison, i64 %.tr50, 0
  %13 = insertvalue { i64, ptr } %12, ptr %.tr3851, 1
  br label %40

14:                                               ; preds = %.lr.ph
  %15 = tail call { i64, ptr } @jv_copy(i64 %.tr3952, ptr %.tr4053) #6
  %16 = extractvalue { i64, ptr } %15, 0
  %17 = extractvalue { i64, ptr } %15, 1
  %18 = tail call i32 @jv_array_length(i64 %16, ptr %17) #6
  %19 = icmp eq i32 %18, 0
  br i1 %19, label %20, label %tailrecurse

20:                                               ; preds = %14
  tail call void @jv_free(i64 %.tr3952, ptr %.tr4053) #6
  %21 = insertvalue { i64, ptr } poison, i64 %.tr50, 0
  %22 = insertvalue { i64, ptr } %21, ptr %.tr3851, 1
  br label %40

tailrecurse:                                      ; preds = %14
  %23 = tail call { i64, ptr } @jv_copy(i64 %.tr3952, ptr %.tr4053) #6
  %24 = extractvalue { i64, ptr } %23, 0
  %25 = extractvalue { i64, ptr } %23, 1
  %26 = tail call { i64, ptr } @jv_array_get(i64 %24, ptr %25, i32 noundef 0) #6
  %27 = extractvalue { i64, ptr } %26, 0
  %28 = extractvalue { i64, ptr } %26, 1
  %29 = tail call { i64, ptr } @jv_copy(i64 %.tr3952, ptr %.tr4053) #6
  %30 = extractvalue { i64, ptr } %29, 0
  %31 = extractvalue { i64, ptr } %29, 1
  %32 = tail call i32 @jv_array_length(i64 %30, ptr %31) #6
  %33 = tail call { i64, ptr } @jv_array_slice(i64 %.tr3952, ptr %.tr4053, i32 noundef 1, i32 noundef %32) #6
  %34 = extractvalue { i64, ptr } %33, 0
  %35 = extractvalue { i64, ptr } %33, 1
  %36 = tail call { i64, ptr } @jv_get(i64 %.tr50, ptr %.tr3851, i64 %27, ptr %28)
  %37 = extractvalue { i64, ptr } %36, 0
  %38 = extractvalue { i64, ptr } %36, 1
  %39 = tail call i32 @jv_get_kind(i64 %34, ptr %35) #6
  %.not = icmp eq i32 %39, 6
  br i1 %.not, label %.lr.ph, label %tailrecurse._crit_edge

40:                                               ; preds = %20, %11, %tailrecurse._crit_edge
  %.fca.1.insert.merged = phi { i64, ptr } [ %9, %tailrecurse._crit_edge ], [ %22, %20 ], [ %13, %11 ]
  ret { i64, ptr } %.fca.1.insert.merged
}